target datalayout = "e-m:e-p270:32:32-p271:32:32-p272:64:64-i64:64-i128:128-f80:128-n8:16:32:64-S128"
target triple = "x86_64-pc-linux-gnu"

%struct.lean_object = type { i32, i32 }
%struct.lean_ctor_object = type { %struct.lean_object, [0 x ptr] }

; Function Attrs: inlinehint nounwind uwtable
define internal ptr @lean_to_ctor(ptr noundef %0) #0 {
  %2 = alloca ptr, align 8
  store ptr %0, ptr %2, align 8, !tbaa !4
  %3 = load ptr, ptr %2, align 8, !tbaa !4
  ret ptr %3
}

; Function Attrs: inlinehint nounwind uwtable
define internal ptr @lean_ctor_obj_cptr(ptr noundef %0) #0 {
  %2 = alloca ptr, align 8
  store ptr %0, ptr %2, align 8, !tbaa !4
  %3 = load ptr, ptr %2, align 8, !tbaa !4
  %4 = call ptr @lean_to_ctor(ptr noundef %3)
  %5 = getelementptr inbounds nuw %struct.lean_ctor_object, ptr %4, i32 0, i32 1
  %6 = getelementptr inbounds [0 x ptr], ptr %5, i64 0, i64 0
  ret ptr %6
}

; Function Attrs: inlinehint nounwind uwtable
define internal double @lean_ctor_get_float(ptr noundef %0, i32 noundef %1) #0 {
  %3 = alloca ptr, align 8
  %4 = alloca i32, align 4
  store ptr %0, ptr %3, align 8, !tbaa !4
  store i32 %1, ptr %4, align 4, !tbaa !20
  %5 = load ptr, ptr %3, align 8, !tbaa !4
  %6 = call ptr @lean_ctor_obj_cptr(ptr noundef %5)
  %7 = load i32, ptr %4, align 4, !tbaa !20
  %8 = zext i32 %7 to i64
  %9 = getelementptr inbounds nuw i8, ptr %6, i64 %8
  %10 = load double, ptr %9, align 8, !tbaa !8
  ret double %10
}

; Function Attrs: alwaysinline nounwind uwtable
define internal void @lean_dec_ref(ptr noundef %0) #1 {
  %2 = alloca ptr, align 8
  store ptr %0, ptr %2, align 8, !tbaa !4
  %3 = load ptr, ptr %2, align 8, !tbaa !4
  %4 = getelementptr inbounds nuw %struct.lean_object, ptr %3, i32 0, i32 0
  %5 = load i32, ptr %4, align 4, !tbaa !21
  %6 = icmp sgt i32 %5, 1
  %7 = zext i1 %6 to i32
  %8 = sext i32 %7 to i64
  %9 = call i64 @llvm.expect.i64(i64 %8, i64 1)
  %10 = icmp ne i64 %9, 0
  br i1 %10, label %11, label %16

11:                                               ; preds = %1
  %12 = load ptr, ptr %2, align 8, !tbaa !4
  %13 = getelementptr inbounds nuw %struct.lean_object, ptr %12, i32 0, i32 0
  %14 = load i32, ptr %13, align 4, !tbaa !21
  %15 = add i32 %14, -1
  store i32 %15, ptr %13, align 4, !tbaa !21
  br label %24

16:                                               ; preds = %1
  %17 = load ptr, ptr %2, align 8, !tbaa !4
  %18 = getelementptr inbounds nuw %struct.lean_object, ptr %17, i32 0, i32 0
  %19 = load i32, ptr %18, align 4, !tbaa !21
  %20 = icmp ne i32 %19, 0
  br i1 %20, label %21, label %23

21:                                               ; preds = %16
  %22 = load ptr, ptr %2, align 8, !tbaa !4
  call void @lean_dec_ref_cold(ptr noundef %22)
  br label %23

23:                                               ; preds = %21, %16
  br label %24

24:                                               ; preds = %23, %11
  ret void
}

; Function Attrs: alwaysinline nounwind uwtable
define internal zeroext i1 @lean_is_scalar(ptr noundef %0) #1 {
  %2 = alloca ptr, align 8
  store ptr %0, ptr %2, align 8, !tbaa !4
  %3 = load ptr, ptr %2, align 8, !tbaa !4
  %4 = ptrtoint ptr %3 to i64
  %5 = and i64 %4, 1
  %6 = icmp eq i64 %5, 1
  ret i1 %6
}

; Function Attrs: inlinehint nounwind uwtable
define internal double @lean_unbox_float(ptr noundef %0) #0 {
  %2 = alloca ptr, align 8
  store ptr %0, ptr %2, align 8, !tbaa !4
  %3 = load ptr, ptr %2, align 8, !tbaa !4
  %4 = call double @lean_ctor_get_float(ptr noundef %3, i32 noundef 0)
  ret double %4
}

; Function Attrs: alwaysinline nounwind uwtable
define internal void @lean_dec(ptr noundef %0) #1 {
  %2 = alloca ptr, align 8
  store ptr %0, ptr %2, align 8, !tbaa !4
  %3 = load ptr, ptr %2, align 8, !tbaa !4
  %4 = call zeroext i1 @lean_is_scalar(ptr noundef %3)
  br i1 %4, label %7, label %5

5:                                                ; preds = %1
  %6 = load ptr, ptr %2, align 8, !tbaa !4
  call void @lean_dec_ref(ptr noundef %6)
  br label %7

7:                                                ; preds = %5, %1
  ret void
}

; Function Attrs: inlinehint nounwind uwtable
define internal i64 @lean_unbox(ptr noundef %0) #0 {
  %2 = alloca ptr, align 8
  store ptr %0, ptr %2, align 8, !tbaa !4
  %3 = load ptr, ptr %2, align 8, !tbaa !4
  %4 = ptrtoint ptr %3 to i64
  %5 = lshr i64 %4, 1
  ret i64 %5
}

; Function Attrs: nounwind uwtable
define ptr @l_Lean_withTraceNode___at_Lean_Elab_Command_runLinters___spec__10___lambda__3___boxed(ptr noundef %0, ptr noundef %1, ptr noundef %2, ptr noundef %3, ptr noundef %4, ptr noundef %5, ptr noundef %6, ptr noundef %7, ptr noundef %8, ptr noundef %9, ptr noundef %10, ptr noundef %11, ptr noundef %12) #2 {
  %14 = alloca ptr, align 8
  %15 = alloca ptr, align 8
  %16 = alloca ptr, align 8
  %17 = alloca ptr, align 8
  %18 = alloca ptr, align 8
  %19 = alloca ptr, align 8
  %20 = alloca ptr, align 8
  %21 = alloca ptr, align 8
  %22 = alloca ptr, align 8
  %23 = alloca ptr, align 8
  %24 = alloca ptr, align 8
  %25 = alloca ptr, align 8
  %26 = alloca ptr, align 8
  %27 = alloca i8, align 1
  %28 = alloca i8, align 1
  %29 = alloca double, align 8
  %30 = alloca double, align 8
  %31 = alloca ptr, align 8
  store ptr %0, ptr %14, align 8, !tbaa !4
  store ptr %1, ptr %15, align 8, !tbaa !4
  store ptr %2, ptr %16, align 8, !tbaa !4
  store ptr %3, ptr %17, align 8, !tbaa !4
  store ptr %4, ptr %18, align 8, !tbaa !4
  store ptr %5, ptr %19, align 8, !tbaa !4
  store ptr %6, ptr %20, align 8, !tbaa !4
  store ptr %7, ptr %21, align 8, !tbaa !4
  store ptr %8, ptr %22, align 8, !tbaa !4
  store ptr %9, ptr %23, align 8, !tbaa !4
  store ptr %10, ptr %24, align 8, !tbaa !4
  store ptr %11, ptr %25, align 8, !tbaa !4
  store ptr %12, ptr %26, align 8, !tbaa !4
  br label %32

32:                                               ; preds = %13
  call void @llvm.lifetime.start.p0(i64 1, ptr %27) #8
  call void @llvm.lifetime.start.p0(i64 1, ptr %28) #8
  call void @llvm.lifetime.start.p0(i64 8, ptr %29) #8
  call void @llvm.lifetime.start.p0(i64 8, ptr %30) #8
  call void @llvm.lifetime.start.p0(i64 8, ptr %31) #8
  %33 = load ptr, ptr %15, align 8, !tbaa !4
  %34 = call i64 @lean_unbox(ptr noundef %33)
  %35 = trunc i64 %34 to i8
  store i8 %35, ptr %27, align 1, !tbaa !17
  %36 = load ptr, ptr %15, align 8, !tbaa !4
  call void @lean_dec(ptr noundef %36)
  %37 = load ptr, ptr %19, align 8, !tbaa !4
  %38 = call i64 @lean_unbox(ptr noundef %37)
  %39 = trunc i64 %38 to i8
  store i8 %39, ptr %28, align 1, !tbaa !17
  %40 = load ptr, ptr %19, align 8, !tbaa !4
  call void @lean_dec(ptr noundef %40)
  %41 = load ptr, ptr %20, align 8, !tbaa !4
  %42 = call double @lean_unbox_float(ptr noundef %41)
  store double %42, ptr %29, align 8, !tbaa !8
  %43 = load ptr, ptr %20, align 8, !tbaa !4
  call void @lean_dec(ptr noundef %43)
  %44 = load ptr, ptr %21, align 8, !tbaa !4
  %45 = call double @lean_unbox_float(ptr noundef %44)
  store double %45, ptr %30, align 8, !tbaa !8
  %46 = load ptr, ptr %21, align 8, !tbaa !4
  call void @lean_dec(ptr noundef %46)
  %47 = load ptr, ptr %14, align 8, !tbaa !4
  %48 = load i8, ptr %27, align 1, !tbaa !17
  %49 = load ptr, ptr %16, align 8, !tbaa !4
  %50 = load ptr, ptr %17, align 8, !tbaa !4
  %51 = load ptr, ptr %18, align 8, !tbaa !4
  %52 = load i8, ptr %28, align 1, !tbaa !17
  %53 = load double, ptr %29, align 8, !tbaa !8
  %54 = load double, ptr %30, align 8, !tbaa !8
  %55 = load ptr, ptr %22, align 8, !tbaa !4
  %56 = load ptr, ptr %23, align 8, !tbaa !4
  %57 = load ptr, ptr %24, align 8, !tbaa !4
  %58 = load ptr, ptr %25, align 8, !tbaa !4
  %59 = load ptr, ptr %26, align 8, !tbaa !4
  %60 = call ptr @l_Lean_withTraceNode___at_Lean_Elab_Command_runLinters___spec__10___lambda__3(ptr noundef %47, i8 noundef zeroext %48, ptr noundef %49, ptr noundef %50, ptr noundef %51, i8 noundef zeroext %52, double noundef %53, double noundef %54, ptr noundef %55, ptr noundef %56, ptr noundef %57, ptr noundef %58, ptr noundef %59)
  store ptr %60, ptr %31, align 8, !tbaa !4
  %61 = load ptr, ptr %23, align 8, !tbaa !4
  call void @lean_dec(ptr noundef %61)
  %62 = load ptr, ptr %31, align 8, !tbaa !4
  call void @llvm.lifetime.end.p0(i64 8, ptr %31) #8
  call void @llvm.lifetime.end.p0(i64 8, ptr %30) #8
  call void @llvm.lifetime.end.p0(i64 8, ptr %29) #8
  call void @llvm.lifetime.end.p0(i64 1, ptr %28) #8
  call void @llvm.lifetime.end.p0(i64 1, ptr %27) #8
  ret ptr %62
}