; Function Attrs: nounwind uwtable
define noalias noundef nonnull ptr @l_Lean_withTraceNode___at_Lean_Elab_Command_runLinters___spec__10___lambda__3___boxed(ptr noundef %0, ptr noundef %1, ptr noundef %2, ptr noundef %3, ptr noundef %4, ptr noundef %5, ptr noundef %6, ptr noundef %7, ptr noundef %8, ptr noundef %9, ptr noundef %10, ptr noundef %11, ptr noundef %12) local_unnamed_addr #0 {
  %14 = ptrtoint ptr %1 to i64
  %15 = lshr i64 %14, 1
  %16 = trunc i64 %15 to i8
  %17 = and i64 %14, 1
  %.not = icmp eq i64 %17, 0
  br i1 %.not, label %18, label %lean_dec.exit25

18:                                               ; preds = %13
  %19 = load i32, ptr %1, align 4, !tbaa !4
  %20 = icmp sgt i32 %19, 1
  br i1 %20, label %21, label %23, !prof !13

21:                                               ; preds = %18
  %22 = add nsw i32 %19, -1
  store i32 %22, ptr %1, align 4, !tbaa !4
  br label %lean_dec.exit25

23:                                               ; preds = %18
  %.not.i = icmp eq i32 %19, 0
  br i1 %.not.i, label %lean_dec.exit25, label %24

24:                                               ; preds = %23
  tail call void @lean_dec_ref_cold(ptr noundef nonnull %1) #6
  br label %lean_dec.exit25

lean_dec.exit25:                                  ; preds = %24, %23, %21, %13
  %25 = ptrtoint ptr %5 to i64
  %26 = lshr i64 %25, 1
  %27 = trunc i64 %26 to i8
  %28 = and i64 %25, 1
  %.not35 = icmp eq i64 %28, 0
  br i1 %.not35, label %29, label %lean_dec.exit24

29:                                               ; preds = %lean_dec.exit25
  %30 = load i32, ptr %5, align 4, !tbaa !4
  %31 = icmp sgt i32 %30, 1
  br i1 %31, label %32, label %34, !prof !13

32:                                               ; preds = %29
  %33 = add nsw i32 %30, -1
  store i32 %33, ptr %5, align 4, !tbaa !4
  br label %lean_dec.exit24

34:                                               ; preds = %29
  %.not.i26 = icmp eq i32 %30, 0
  br i1 %.not.i26, label %lean_dec.exit24, label %35

35:                                               ; preds = %34
  tail call void @lean_dec_ref_cold(ptr noundef nonnull %5) #6
  br label %lean_dec.exit24

lean_dec.exit24:                                  ; preds = %35, %34, %32, %lean_dec.exit25
  %36 = getelementptr i8, ptr %6, i64 8
  %.val34 = load double, ptr %36, align 8, !tbaa !18
  %37 = ptrtoint ptr %6 to i64
  %38 = and i64 %37, 1
  %.not36 = icmp eq i64 %38, 0
  br i1 %.not36, label %39, label %lean_dec.exit23

39:                                               ; preds = %lean_dec.exit24
  %40 = load i32, ptr %6, align 4, !tbaa !4
  %41 = icmp sgt i32 %40, 1
  br i1 %41, label %42, label %44, !prof !13

42:                                               ; preds = %39
  %43 = add nsw i32 %40, -1
  store i32 %43, ptr %6, align 4, !tbaa !4
  br label %lean_dec.exit23

44:                                               ; preds = %39
  %.not.i28 = icmp eq i32 %40, 0
  br i1 %.not.i28, label %lean_dec.exit23, label %45

45:                                               ; preds = %44
  tail call void @lean_dec_ref_cold(ptr noundef nonnull %6) #6
  br label %lean_dec.exit23

lean_dec.exit23:                                  ; preds = %45, %44, %42, %lean_dec.exit24
  %46 = getelementptr i8, ptr %7, i64 8
  %.val = load double, ptr %46, align 8, !tbaa !18
  %47 = ptrtoint ptr %7 to i64
  %48 = and i64 %47, 1
  %.not37 = icmp eq i64 %48, 0
  br i1 %.not37, label %49, label %lean_dec.exit22

49:                                               ; preds = %lean_dec.exit23
  %50 = load i32, ptr %7, align 4, !tbaa !4
  %51 = icmp sgt i32 %50, 1
  br i1 %51, label %52, label %54, !prof !13

52:                                               ; preds = %49
  %53 = add nsw i32 %50, -1
  store i32 %53, ptr %7, align 4, !tbaa !4
  br label %lean_dec.exit22

54:                                               ; preds = %49
  %.not.i30 = icmp eq i32 %50, 0
  br i1 %.not.i30, label %lean_dec.exit22, label %55

55:                                               ; preds = %54
  tail call void @lean_dec_ref_cold(ptr noundef nonnull %7) #6
  br label %lean_dec.exit22

lean_dec.exit22:                                  ; preds = %55, %54, %52, %lean_dec.exit23
  %56 = tail call ptr @l_Lean_withTraceNode___at_Lean_Elab_Command_runLinters___spec__10___lambda__3(ptr noundef %0, i8 noundef zeroext %16, ptr noundef %2, ptr noundef %3, ptr noundef %4, i8 noundef zeroext %27, double noundef %.val34, double noundef %.val, ptr noundef %8, ptr poison, ptr noundef %10, ptr noundef %11, ptr noundef %12)
  %57 = ptrtoint ptr %9 to i64
  %58 = and i64 %57, 1
  %.not38 = icmp eq i64 %58, 0
  br i1 %.not38, label %59, label %lean_dec.exit

59:                                               ; preds = %lean_dec.exit22
  %60 = load i32, ptr %9, align 4, !tbaa !4
  %61 = icmp sgt i32 %60, 1
  br i1 %61, label %62, label %64, !prof !13

62:                                               ; preds = %59
  %63 = add nsw i32 %60, -1
  store i32 %63, ptr %9, align 4, !tbaa !4
  br label %lean_dec.exit

64:                                               ; preds = %59
  %.not.i32 = icmp eq i32 %60, 0
  br i1 %.not.i32, label %lean_dec.exit, label %65

65:                                               ; preds = %64
  tail call void @lean_dec_ref_cold(ptr noundef nonnull %9) #6
  br label %lean_dec.exit

lean_dec.exit:                                    ; preds = %65, %64, %62, %lean_dec.exit22
  ret ptr %56
}